target datalayout = "e-m:e-p270:32:32-p271:32:32-p272:64:64-i64:64-i128:128-f80:128-n8:16:32:64-S128"
target triple = "x86_64-pc-linux-gnu"

%struct.GCRef = type { i64 }
%struct.CPState = type { i32, i32, %struct.CPValue, ptr, ptr, ptr, %struct.SBuf, ptr, ptr, ptr, ptr, i32, i32, i32, i32, [7 x i8], i8 }
%struct.CPValue = type { %union.anon, i32 }
%union.anon = type { i32 }
%struct.SBuf = type { ptr, ptr, ptr, %struct.MRef }
%struct.MRef = type { i64 }
%struct.CPDecl = type { i32, i32, i32, i32, ptr, ptr, ptr, i32, i32, i32, i32, i32, i32, [100 x %struct.CType] }
%struct.CType = type { i32, i32, i16, i16, %struct.GCRef }

; Function Attrs: nounwind uwtable
define internal void @cp_expr_sub(ptr noundef %0, ptr noundef %1, i32 noundef %2) #0 {
  %4 = alloca ptr, align 8
  %5 = alloca ptr, align 8
  %6 = alloca i32, align 4
  store ptr %0, ptr %4, align 8, !tbaa !20
  store ptr %1, ptr %5, align 8, !tbaa !129
  store i32 %2, ptr %6, align 4, !tbaa !11
  %7 = load ptr, ptr %4, align 8, !tbaa !20
  %8 = load ptr, ptr %5, align 8, !tbaa !129
  call void @cp_expr_unary(ptr noundef %7, ptr noundef %8)
  %9 = load ptr, ptr %4, align 8, !tbaa !20
  %10 = load ptr, ptr %5, align 8, !tbaa !129
  %11 = load i32, ptr %6, align 4, !tbaa !11
  call void @cp_expr_infix(ptr noundef %9, ptr noundef %10, i32 noundef %11)
  ret void
}

; Function Attrs: nounwind uwtable
define internal void @cp_expr_unary(ptr noundef %0, ptr noundef %1) #0 {
  %3 = alloca ptr, align 8
  %4 = alloca ptr, align 8
  store ptr %0, ptr %3, align 8, !tbaa !20
  store ptr %1, ptr %4, align 8, !tbaa !129
  %5 = load ptr, ptr %3, align 8, !tbaa !20
  %6 = getelementptr inbounds nuw %struct.CPState, ptr %5, i32 0, i32 12
  %7 = load i32, ptr %6, align 4, !tbaa !54
  %8 = add nsw i32 %7, 1
  store i32 %8, ptr %6, align 4, !tbaa !54
  %9 = icmp sgt i32 %8, 20
  br i1 %9, label %10, label %12

10:                                               ; preds = %2
  %11 = load ptr, ptr %3, align 8, !tbaa !20
  call void @cp_err(ptr noundef %11, i32 noundef 2216) #15
  unreachable

12:                                               ; preds = %2
  %13 = load ptr, ptr %3, align 8, !tbaa !20
  %14 = load ptr, ptr %4, align 8, !tbaa !129
  call void @cp_expr_prefix(ptr noundef %13, ptr noundef %14)
  %15 = load ptr, ptr %3, align 8, !tbaa !20
  %16 = load ptr, ptr %4, align 8, !tbaa !129
  call void @cp_expr_postfix(ptr noundef %15, ptr noundef %16)
  %17 = load ptr, ptr %3, align 8, !tbaa !20
  %18 = getelementptr inbounds nuw %struct.CPState, ptr %17, i32 0, i32 12
  %19 = load i32, ptr %18, align 4, !tbaa !54
  %20 = add nsw i32 %19, -1
  store i32 %20, ptr %18, align 4, !tbaa !54
  ret void
}

; Function Attrs: nounwind uwtable
define internal void @cp_check(ptr noundef %0, i32 noundef %1) #0 {
  %3 = alloca ptr, align 8
  %4 = alloca i32, align 4
  store ptr %0, ptr %3, align 8, !tbaa !20
  store i32 %1, ptr %4, align 4, !tbaa !11
  %5 = load ptr, ptr %3, align 8, !tbaa !20
  %6 = getelementptr inbounds nuw %struct.CPState, ptr %5, i32 0, i32 1
  %7 = load i32, ptr %6, align 4, !tbaa !56
  %8 = load i32, ptr %4, align 4, !tbaa !11
  %9 = icmp ne i32 %7, %8
  br i1 %9, label %10, label %13

10:                                               ; preds = %2
  %11 = load ptr, ptr %3, align 8, !tbaa !20
  %12 = load i32, ptr %4, align 4, !tbaa !11
  call void @cp_err_token(ptr noundef %11, i32 noundef %12) #15
  unreachable

13:                                               ; preds = %2
  %14 = load ptr, ptr %3, align 8, !tbaa !20
  %15 = call i32 @cp_next(ptr noundef %14)
  ret void
}

; Function Attrs: nounwind uwtable
define internal void @cp_expr_comma(ptr noundef %0, ptr noundef %1) #0 {
  %3 = alloca ptr, align 8
  %4 = alloca ptr, align 8
  store ptr %0, ptr %3, align 8, !tbaa !20
  store ptr %1, ptr %4, align 8, !tbaa !129
  br label %5

5:                                                ; preds = %8, %2
  %6 = load ptr, ptr %3, align 8, !tbaa !20
  %7 = load ptr, ptr %4, align 8, !tbaa !129
  call void @cp_expr_sub(ptr noundef %6, ptr noundef %7, i32 noundef 0)
  br label %8

8:                                                ; preds = %5
  %9 = load ptr, ptr %3, align 8, !tbaa !20
  %10 = call i32 @cp_opt(ptr noundef %9, i32 noundef 44)
  %11 = icmp ne i32 %10, 0
  br i1 %11, label %5, label %12, !llvm.loop !135

12:                                               ; preds = %8
  ret void
}

; Function Attrs: nounwind uwtable
define internal i32 @cp_decl_abstract(ptr noundef %0) #0 {
  %2 = alloca ptr, align 8
  %3 = alloca %struct.CPDecl, align 8
  store ptr %0, ptr %2, align 8, !tbaa !20
  call void @llvm.lifetime.start.p0(i64 2464, ptr %3) #13
  %4 = load ptr, ptr %2, align 8, !tbaa !20
  %5 = call i32 @cp_decl_spec(ptr noundef %4, ptr noundef %3, i32 noundef 0)
  %6 = getelementptr inbounds nuw %struct.CPDecl, ptr %3, i32 0, i32 3
  store i32 2, ptr %6, align 4, !tbaa !99
  %7 = load ptr, ptr %2, align 8, !tbaa !20
  call void @cp_declarator(ptr noundef %7, ptr noundef %3)
  %8 = load ptr, ptr %2, align 8, !tbaa !20
  %9 = call i32 @cp_decl_intern(ptr noundef %8, ptr noundef %3)
  call void @llvm.lifetime.end.p0(i64 2464, ptr %3) #13
  ret i32 %9
}

; Function Attrs: nounwind uwtable
define internal i32 @cp_istypedecl(ptr noundef %0) #0 {
  %2 = alloca i32, align 4
  %3 = alloca ptr, align 8
  store ptr %0, ptr %3, align 8, !tbaa !20
  %4 = load ptr, ptr %3, align 8, !tbaa !20
  %5 = getelementptr inbounds nuw %struct.CPState, ptr %4, i32 0, i32 1
  %6 = load i32, ptr %5, align 4, !tbaa !56
  %7 = icmp sge i32 %6, 269
  br i1 %7, label %8, label %14

8:                                                ; preds = %1
  %9 = load ptr, ptr %3, align 8, !tbaa !20
  %10 = getelementptr inbounds nuw %struct.CPState, ptr %9, i32 0, i32 1
  %11 = load i32, ptr %10, align 4, !tbaa !56
  %12 = icmp sle i32 %11, 297
  br i1 %12, label %13, label %14

13:                                               ; preds = %8
  store i32 1, ptr %2, align 4
  br label %35

14:                                               ; preds = %8, %1
  %15 = load ptr, ptr %3, align 8, !tbaa !20
  %16 = getelementptr inbounds nuw %struct.CPState, ptr %15, i32 0, i32 1
  %17 = load i32, ptr %16, align 4, !tbaa !56
  %18 = icmp eq i32 %17, 256
  br i1 %18, label %19, label %28

19:                                               ; preds = %14
  %20 = load ptr, ptr %3, align 8, !tbaa !20
  %21 = getelementptr inbounds nuw %struct.CPState, ptr %20, i32 0, i32 4
  %22 = load ptr, ptr %21, align 8, !tbaa !81
  %23 = getelementptr inbounds nuw %struct.CType, ptr %22, i32 0, i32 0
  %24 = load i32, ptr %23, align 8, !tbaa !60
  %25 = lshr i32 %24, 28
  %26 = icmp eq i32 %25, 7
  br i1 %26, label %27, label %28

27:                                               ; preds = %19
  store i32 1, ptr %2, align 4
  br label %35

28:                                               ; preds = %19, %14
  %29 = load ptr, ptr %3, align 8, !tbaa !20
  %30 = getelementptr inbounds nuw %struct.CPState, ptr %29, i32 0, i32 1
  %31 = load i32, ptr %30, align 4, !tbaa !56
  %32 = icmp eq i32 %31, 36
  br i1 %32, label %33, label %34

33:                                               ; preds = %28
  store i32 1, ptr %2, align 4
  br label %35

34:                                               ; preds = %28
  store i32 0, ptr %2, align 4
  br label %35

35:                                               ; preds = %34, %33, %27, %13
  %36 = load i32, ptr %2, align 4
  ret i32 %36
}

; Function Attrs: nounwind uwtable
define internal i32 @cp_opt(ptr noundef %0, i32 noundef %1) #0 {
  %3 = alloca i32, align 4
  %4 = alloca ptr, align 8
  %5 = alloca i32, align 4
  store ptr %0, ptr %4, align 8, !tbaa !20
  store i32 %1, ptr %5, align 4, !tbaa !11
  %6 = load ptr, ptr %4, align 8, !tbaa !20
  %7 = getelementptr inbounds nuw %struct.CPState, ptr %6, i32 0, i32 1
  %8 = load i32, ptr %7, align 4, !tbaa !56
  %9 = load i32, ptr %5, align 4, !tbaa !11
  %10 = icmp eq i32 %8, %9
  br i1 %10, label %11, label %14

11:                                               ; preds = %2
  %12 = load ptr, ptr %4, align 8, !tbaa !20
  %13 = call i32 @cp_next(ptr noundef %12)
  store i32 1, ptr %3, align 4
  br label %15

14:                                               ; preds = %2
  store i32 0, ptr %3, align 4
  br label %15

15:                                               ; preds = %14, %11
  %16 = load i32, ptr %3, align 4
  ret i32 %16
}

; Function Attrs: nounwind uwtable
define internal void @cp_expr_sizeof(ptr noundef %0, ptr noundef %1, i32 noundef %2) #0 {
  %4 = alloca ptr, align 8
  %5 = alloca ptr, align 8
  %6 = alloca i32, align 4
  %7 = alloca i32, align 4
  %8 = alloca i32, align 4
  store ptr %0, ptr %4, align 8, !tbaa !20
  store ptr %1, ptr %5, align 8, !tbaa !129
  store i32 %2, ptr %6, align 4, !tbaa !11
  call void @llvm.lifetime.start.p0(i64 4, ptr %7) #13
  call void @llvm.lifetime.start.p0(i64 4, ptr %8) #13
  %9 = load ptr, ptr %4, align 8, !tbaa !20
  %10 = call i32 @cp_opt(ptr noundef %9, i32 noundef 40)
  %11 = icmp ne i32 %10, 0
  br i1 %11, label %12, label %26

12:                                               ; preds = %3
  %13 = load ptr, ptr %4, align 8, !tbaa !20
  %14 = call i32 @cp_istypedecl(ptr noundef %13)
  %15 = icmp ne i32 %14, 0
  br i1 %15, label %16, label %21

16:                                               ; preds = %12
  %17 = load ptr, ptr %4, align 8, !tbaa !20
  %18 = call i32 @cp_decl_abstract(ptr noundef %17)
  %19 = load ptr, ptr %5, align 8, !tbaa !129
  %20 = getelementptr inbounds nuw %struct.CPValue, ptr %19, i32 0, i32 1
  store i32 %18, ptr %20, align 4, !tbaa !122
  br label %24

21:                                               ; preds = %12
  %22 = load ptr, ptr %4, align 8, !tbaa !20
  %23 = load ptr, ptr %5, align 8, !tbaa !129
  call void @cp_expr_comma(ptr noundef %22, ptr noundef %23)
  br label %24

24:                                               ; preds = %21, %16
  %25 = load ptr, ptr %4, align 8, !tbaa !20
  call void @cp_check(ptr noundef %25, i32 noundef 41)
  br label %29

26:                                               ; preds = %3
  %27 = load ptr, ptr %4, align 8, !tbaa !20
  %28 = load ptr, ptr %5, align 8, !tbaa !129
  call void @cp_expr_unary(ptr noundef %27, ptr noundef %28)
  br label %29

29:                                               ; preds = %26, %24
  %30 = load ptr, ptr %4, align 8, !tbaa !20
  %31 = getelementptr inbounds nuw %struct.CPState, ptr %30, i32 0, i32 8
  %32 = load ptr, ptr %31, align 8, !tbaa !22
  %33 = load ptr, ptr %5, align 8, !tbaa !129
  %34 = getelementptr inbounds nuw %struct.CPValue, ptr %33, i32 0, i32 1
  %35 = load i32, ptr %34, align 4, !tbaa !122
  %36 = call i32 @lj_ctype_info_raw(ptr noundef %32, i32 noundef %35, ptr noundef %7)
  store i32 %36, ptr %8, align 4, !tbaa !11
  %37 = load i32, ptr %6, align 4, !tbaa !11
  %38 = icmp ne i32 %37, 0
  br i1 %38, label %39, label %55

39:                                               ; preds = %29
  %40 = load i32, ptr %7, align 4, !tbaa !11
  %41 = icmp ne i32 %40, -1
  br i1 %41, label %42, label %46

42:                                               ; preds = %39
  %43 = load i32, ptr %7, align 4, !tbaa !11
  %44 = load ptr, ptr %5, align 8, !tbaa !129
  %45 = getelementptr inbounds nuw %struct.CPValue, ptr %44, i32 0, i32 0
  store i32 %43, ptr %45, align 4, !tbaa !13
  br label %54

46:                                               ; preds = %39
  %47 = load ptr, ptr %5, align 8, !tbaa !129
  %48 = getelementptr inbounds nuw %struct.CPValue, ptr %47, i32 0, i32 1
  %49 = load i32, ptr %48, align 4, !tbaa !122
  %50 = icmp ne i32 %49, 21
  br i1 %50, label %51, label %53

51:                                               ; preds = %46
  %52 = load ptr, ptr %4, align 8, !tbaa !20
  call void @cp_err(ptr noundef %52, i32 noundef 3031) #15
  unreachable

53:                                               ; preds = %46
  br label %54

54:                                               ; preds = %53, %42
  br label %62

55:                                               ; preds = %29
  %56 = load i32, ptr %8, align 4, !tbaa !11
  %57 = lshr i32 %56, 16
  %58 = and i32 %57, 15
  %59 = shl i32 1, %58
  %60 = load ptr, ptr %5, align 8, !tbaa !129
  %61 = getelementptr inbounds nuw %struct.CPValue, ptr %60, i32 0, i32 0
  store i32 %59, ptr %61, align 4, !tbaa !13
  br label %62

62:                                               ; preds = %55, %54
  %63 = load ptr, ptr %5, align 8, !tbaa !129
  %64 = getelementptr inbounds nuw %struct.CPValue, ptr %63, i32 0, i32 1
  store i32 10, ptr %64, align 4, !tbaa !122
  call void @llvm.lifetime.end.p0(i64 4, ptr %8) #13
  call void @llvm.lifetime.end.p0(i64 4, ptr %7) #13
  ret void
}