; Function Attrs: nounwind uwtable
define internal fastcc void @cp_expr_sizeof(ptr noundef %0, ptr noundef nonnull captures(none) %1, i32 noundef range(i32 0, 2) %2) unnamed_addr #2 {
  %4 = alloca %struct.CPDecl, align 8
  %5 = alloca i32, align 4
  call void @llvm.lifetime.start.p0(i64 4, ptr nonnull %5) #15
  %6 = getelementptr inbounds nuw i8, ptr %0, i64 4
  %7 = load i32, ptr %6, align 4, !tbaa !64
  %8 = icmp eq i32 %7, 40
  br i1 %8, label %9, label %38

9:                                                ; preds = %3
  %10 = tail call fastcc i32 @cp_next(ptr noundef nonnull %0)
  %11 = load i32, ptr %6, align 4, !tbaa !64
  %12 = add i32 %11, -269
  %or.cond.i = icmp ult i32 %12, 29
  br i1 %or.cond.i, label %cp_istypedecl.exit.thread, label %13

13:                                               ; preds = %9
  switch i32 %11, label %cp_istypedecl.exit.thread29 [
    i32 256, label %14
    i32 36, label %cp_istypedecl.exit.thread
  ]

14:                                               ; preds = %13
  %15 = getelementptr inbounds nuw i8, ptr %0, i64 24
  %16 = load ptr, ptr %15, align 8, !tbaa !101
  %17 = load i32, ptr %16, align 8, !tbaa !71
  %.mask.i = and i32 %17, -268435456
  %18 = icmp eq i32 %.mask.i, 1879048192
  br i1 %18, label %cp_istypedecl.exit.thread, label %cp_istypedecl.exit.thread29

cp_istypedecl.exit.thread:                        ; preds = %13, %14, %9
  call void @llvm.lifetime.start.p0(i64 2464, ptr nonnull %4) #15
  %19 = call fastcc i32 @cp_decl_spec(ptr noundef nonnull %0, ptr noundef %4, i32 noundef 0)
  %20 = getelementptr inbounds nuw i8, ptr %4, i64 12
  store i32 2, ptr %20, align 4, !tbaa !113
  call fastcc void @cp_declarator(ptr noundef nonnull %0, ptr noundef %4)
  %21 = call fastcc i32 @cp_decl_intern(ptr noundef nonnull %0, ptr noundef %4)
  call void @llvm.lifetime.end.p0(i64 2464, ptr nonnull %4) #15
  %22 = getelementptr inbounds nuw i8, ptr %1, i64 4
  store i32 %21, ptr %22, align 4, !tbaa !114
  %.pr = load i32, ptr %6, align 4, !tbaa !64
  br label %cp_expr_comma.exit

cp_istypedecl.exit.thread29:                      ; preds = %13, %14
  %23 = getelementptr inbounds nuw i8, ptr %0, i64 108
  %24 = load i32, ptr %23, align 4, !tbaa !58
  %25 = add nsw i32 %24, 1
  store i32 %25, ptr %23, align 4, !tbaa !58
  %26 = icmp sgt i32 %24, 19
  br i1 %26, label %._crit_edge, label %cp_expr_sub.exit

._crit_edge:                                      ; preds = %cp_opt.exit24, %cp_istypedecl.exit.thread29
  tail call fastcc void @cp_err(ptr noundef nonnull %0, i32 noundef 2216) #16
  unreachable

cp_expr_sub.exit:                                 ; preds = %cp_istypedecl.exit.thread29, %cp_opt.exit24
  tail call fastcc void @cp_expr_prefix(ptr noundef nonnull %0, ptr noundef nonnull %1)
  tail call fastcc void @cp_expr_postfix(ptr noundef nonnull %0, ptr noundef nonnull %1)
  %27 = load i32, ptr %23, align 4, !tbaa !58
  %28 = add nsw i32 %27, -1
  store i32 %28, ptr %23, align 4, !tbaa !58
  tail call fastcc void @cp_expr_infix(ptr noundef nonnull %0, ptr noundef nonnull %1, i32 noundef 0)
  %29 = load i32, ptr %6, align 4, !tbaa !64
  %30 = icmp eq i32 %29, 44
  br i1 %30, label %cp_opt.exit24, label %cp_expr_comma.exit

cp_opt.exit24:                                    ; preds = %cp_expr_sub.exit
  %31 = tail call fastcc i32 @cp_next(ptr noundef nonnull %0)
  %32 = load i32, ptr %23, align 4, !tbaa !58
  %33 = add nsw i32 %32, 1
  store i32 %33, ptr %23, align 4, !tbaa !58
  %34 = icmp sgt i32 %32, 19
  br i1 %34, label %._crit_edge, label %cp_expr_sub.exit, !llvm.loop !127

cp_expr_comma.exit:                               ; preds = %cp_expr_sub.exit, %cp_istypedecl.exit.thread
  %35 = phi i32 [ %.pr, %cp_istypedecl.exit.thread ], [ %29, %cp_expr_sub.exit ]
  %.not.i22 = icmp eq i32 %35, 41
  br i1 %.not.i22, label %cp_check.exit, label %36

36:                                               ; preds = %cp_expr_comma.exit
  call fastcc void @cp_err_token(ptr noundef nonnull %0, i32 noundef 41) #16
  unreachable

cp_check.exit:                                    ; preds = %cp_expr_comma.exit
  %37 = call fastcc i32 @cp_next(ptr noundef nonnull %0)
  br label %46

38:                                               ; preds = %3
  %39 = getelementptr inbounds nuw i8, ptr %0, i64 108
  %40 = load i32, ptr %39, align 4, !tbaa !58
  %41 = add nsw i32 %40, 1
  store i32 %41, ptr %39, align 4, !tbaa !58
  %42 = icmp sgt i32 %40, 19
  br i1 %42, label %43, label %cp_expr_unary.exit

43:                                               ; preds = %38
  tail call fastcc void @cp_err(ptr noundef nonnull %0, i32 noundef 2216) #16
  unreachable

cp_expr_unary.exit:                               ; preds = %38
  tail call fastcc void @cp_expr_prefix(ptr noundef nonnull %0, ptr noundef nonnull %1)
  tail call fastcc void @cp_expr_postfix(ptr noundef nonnull %0, ptr noundef nonnull %1)
  %44 = load i32, ptr %39, align 4, !tbaa !58
  %45 = add nsw i32 %44, -1
  store i32 %45, ptr %39, align 4, !tbaa !58
  br label %46

46:                                               ; preds = %cp_expr_unary.exit, %cp_check.exit
  %47 = getelementptr inbounds nuw i8, ptr %0, i64 80
  %48 = load ptr, ptr %47, align 8, !tbaa !14
  %49 = getelementptr inbounds nuw i8, ptr %1, i64 4
  %50 = load i32, ptr %49, align 4, !tbaa !114
  %51 = call i32 @lj_ctype_info_raw(ptr noundef %48, i32 noundef %50, ptr noundef nonnull %5) #15
  %.not18 = icmp eq i32 %2, 0
  br i1 %.not18, label %57, label %52

52:                                               ; preds = %46
  %53 = load i32, ptr %5, align 4, !tbaa !26
  %.not19 = icmp eq i32 %53, -1
  br i1 %.not19, label %54, label %.sink.split

54:                                               ; preds = %52
  %55 = load i32, ptr %49, align 4, !tbaa !114
  %.not20 = icmp eq i32 %55, 21
  br i1 %.not20, label %61, label %56

56:                                               ; preds = %54
  call fastcc void @cp_err(ptr noundef nonnull %0, i32 noundef 3031) #16
  unreachable

57:                                               ; preds = %46
  %58 = lshr i32 %51, 16
  %59 = and i32 %58, 15
  %60 = shl nuw nsw i32 1, %59
  br label %.sink.split

.sink.split:                                      ; preds = %52, %57
  %.sink = phi i32 [ %60, %57 ], [ %53, %52 ]
  store i32 %.sink, ptr %1, align 4, !tbaa !4
  br label %61

61:                                               ; preds = %.sink.split, %54
  store i32 10, ptr %49, align 4, !tbaa !114
  call void @llvm.lifetime.end.p0(i64 4, ptr nonnull %5) #15
  ret void
}